target datalayout = "e-m:e-p270:32:32-p271:32:32-p272:64:64-i64:64-i128:128-f80:128-n8:16:32:64-S128"
target triple = "x86_64-unknown-linux-gnu"

%"class.boost::detail::shared_count" = type { ptr }
%"class.boost::optional" = type { %"class.boost::optional_detail::tc_optional_base" }
%"class.boost::optional_detail::tc_optional_base" = type { i8, i8 }
%"class.boost::optional.49" = type { %"class.boost::optional_detail::tc_optional_base.50" }
%"class.boost::optional_detail::tc_optional_base.50" = type { i8, i32 }
%"class.QuantLib::Handle" = type { %"class.boost::shared_ptr.51" }
%"class.boost::shared_ptr.51" = type { ptr, %"class.boost::detail::shared_count" }
%"class.boost::shared_ptr.52" = type { ptr, %"class.boost::detail::shared_count" }
%"class.QuantLib::Null" = type { i8 }

; Function Attrs: mustprogress nounwind uwtable
define linkonce_odr noundef i32 @_ZNSt14numeric_limitsIiE3maxEv() #1 comdat align 2 {
entry:
  ret i32 2147483647
}

; Function Attrs: mustprogress nounwind uwtable
define linkonce_odr void @_ZN5boost6detail12shared_countC2EOS1_(ptr noundef nonnull align 8 dereferenceable(8) %this, ptr noundef nonnull align 8 dereferenceable(8) %r) unnamed_addr #1 comdat align 2 {
entry:
  %this.addr = alloca ptr, align 8
  %r.addr = alloca ptr, align 8
  store ptr %this, ptr %this.addr, align 8, !tbaa !3
  store ptr %r, ptr %r.addr, align 8, !tbaa !3
  %this1 = load ptr, ptr %this.addr, align 8
  %pi_ = getelementptr inbounds nuw %"class.boost::detail::shared_count", ptr %this1, i32 0, i32 0
  %0 = load ptr, ptr %r.addr, align 8, !tbaa !3
  %pi_2 = getelementptr inbounds nuw %"class.boost::detail::shared_count", ptr %0, i32 0, i32 0
  %1 = load ptr, ptr %pi_2, align 8, !tbaa !119
  store ptr %1, ptr %pi_, align 8, !tbaa !119
  %2 = load ptr, ptr %r.addr, align 8, !tbaa !3
  %pi_3 = getelementptr inbounds nuw %"class.boost::detail::shared_count", ptr %2, i32 0, i32 0
  store ptr null, ptr %pi_3, align 8, !tbaa !119
  ret void
}

; Function Attrs: mustprogress nounwind uwtable
define linkonce_odr void @_ZN5boost6detail12shared_countC2Ev(ptr noundef nonnull align 8 dereferenceable(8) %this) unnamed_addr #1 comdat align 2 {
entry:
  %this.addr = alloca ptr, align 8
  store ptr %this, ptr %this.addr, align 8, !tbaa !3
  %this1 = load ptr, ptr %this.addr, align 8
  %pi_ = getelementptr inbounds nuw %"class.boost::detail::shared_count", ptr %this1, i32 0, i32 0
  store ptr null, ptr %pi_, align 8, !tbaa !119
  ret void
}

; Function Attrs: mustprogress nounwind uwtable
define linkonce_odr noundef i32 @_ZN8QuantLib6detail17FloatingPointNullILb0EE9nullValueEv() #1 comdat align 2 {
entry:
  %call = call noundef i32 @_ZNSt14numeric_limitsIiE3maxEv() #14
  ret i32 %call
}

; Function Attrs: mustprogress nounwind uwtable
define linkonce_odr void @_ZN5boost10shared_ptrIN8QuantLib6HandleINS1_18YieldTermStructureEE4LinkEEC2EOS6_(ptr noundef nonnull align 8 dereferenceable(16) %this, ptr noundef nonnull align 8 dereferenceable(16) %r) unnamed_addr #1 comdat align 2 {
entry:
  %this.addr = alloca ptr, align 8
  %r.addr = alloca ptr, align 8
  store ptr %this, ptr %this.addr, align 8, !tbaa !3
  store ptr %r, ptr %r.addr, align 8, !tbaa !3
  %this1 = load ptr, ptr %this.addr, align 8
  %px = getelementptr inbounds nuw %"class.boost::shared_ptr.51", ptr %this1, i32 0, i32 0
  %0 = load ptr, ptr %r.addr, align 8, !tbaa !3
  %px2 = getelementptr inbounds nuw %"class.boost::shared_ptr.51", ptr %0, i32 0, i32 0
  %1 = load ptr, ptr %px2, align 8, !tbaa !120
  store ptr %1, ptr %px, align 8, !tbaa !120
  %pn = getelementptr inbounds nuw %"class.boost::shared_ptr.51", ptr %this1, i32 0, i32 1
  %2 = load ptr, ptr %r.addr, align 8, !tbaa !3
  %pn3 = getelementptr inbounds nuw %"class.boost::shared_ptr.51", ptr %2, i32 0, i32 1
  call void @_ZN5boost6detail12shared_countC2EOS1_(ptr noundef nonnull align 8 dereferenceable(8) %pn, ptr noundef nonnull align 8 dereferenceable(8) %pn3) #14
  %3 = load ptr, ptr %r.addr, align 8, !tbaa !3
  %px4 = getelementptr inbounds nuw %"class.boost::shared_ptr.51", ptr %3, i32 0, i32 0
  store ptr null, ptr %px4, align 8, !tbaa !120
  ret void
}

; Function Attrs: mustprogress nounwind uwtable
define linkonce_odr void @_ZN5boost10shared_ptrIN8QuantLib24FloatingRateCouponPricerEEC2Ev(ptr noundef nonnull align 8 dereferenceable(16) %this) unnamed_addr #1 comdat align 2 {
entry:
  %this.addr = alloca ptr, align 8
  store ptr %this, ptr %this.addr, align 8, !tbaa !3
  %this1 = load ptr, ptr %this.addr, align 8
  %px = getelementptr inbounds nuw %"class.boost::shared_ptr.52", ptr %this1, i32 0, i32 0
  store ptr null, ptr %px, align 8, !tbaa !83
  %pn = getelementptr inbounds nuw %"class.boost::shared_ptr.52", ptr %this1, i32 0, i32 1
  call void @_ZN5boost6detail12shared_countC2Ev(ptr noundef nonnull align 8 dereferenceable(8) %pn) #14
  ret void
}

; Function Attrs: mustprogress uwtable
define linkonce_odr noundef i32 @_ZNK8QuantLib4NullIjEcvjEv(ptr noundef nonnull align 1 dereferenceable(1) %this) #2 comdat align 2 {
entry:
  %this.addr = alloca ptr, align 8
  store ptr %this, ptr %this.addr, align 8, !tbaa !3
  %call = call noundef i32 @_ZN8QuantLib6detail17FloatingPointNullILb0EE9nullValueEv()
  ret i32 %call
}

; Function Attrs: inlinehint mustprogress nounwind uwtable
define linkonce_odr void @_ZN8QuantLib6HandleINS_18YieldTermStructureEEC2EOS2_(ptr noundef nonnull align 8 dereferenceable(16) %this, ptr noundef nonnull align 8 dereferenceable(16) %0) unnamed_addr #5 comdat align 2 {
entry:
  %this.addr = alloca ptr, align 8
  %.addr = alloca ptr, align 8
  store ptr %this, ptr %this.addr, align 8, !tbaa !3
  store ptr %0, ptr %.addr, align 8, !tbaa !3
  %this1 = load ptr, ptr %this.addr, align 8
  %link_ = getelementptr inbounds nuw %"class.QuantLib::Handle", ptr %this1, i32 0, i32 0
  %1 = load ptr, ptr %.addr, align 8, !tbaa !3
  %link_2 = getelementptr inbounds nuw %"class.QuantLib::Handle", ptr %1, i32 0, i32 0
  call void @_ZN5boost10shared_ptrIN8QuantLib6HandleINS1_18YieldTermStructureEE4LinkEEC2EOS6_(ptr noundef nonnull align 8 dereferenceable(16) %link_, ptr noundef nonnull align 8 dereferenceable(16) %link_2) #14
  ret void
}

; Function Attrs: mustprogress uwtable
define void @_ZN8QuantLib18DatedOISRateHelperC2ERKNS_4DateES3_RKNS_6HandleINS_5QuoteEEERKN5boost10shared_ptrINS_14OvernightIndexEEENS4_INS_18YieldTermStructureEEEbNS_13RateAveraging4TypeEiNS_21BusinessDayConventionENS_9FrequencyERKNS_8CalendarERKNS_6PeriodEdNS9_8optionalIbEENSR_ISK_EESN_(ptr noundef nonnull align 8 dereferenceable(252) %this, ptr noundef nonnull align 8 dereferenceable(8) %startDate, ptr noundef nonnull align 8 dereferenceable(8) %endDate, ptr noundef nonnull align 8 dereferenceable(16) %fixedRate, ptr noundef nonnull align 8 dereferenceable(16) %overnightIndex, ptr noundef %discount, i1 noundef zeroext %telescopicValueDates, i32 noundef %averagingMethod, i32 noundef %paymentLag, i32 noundef %paymentConvention, i32 noundef %paymentFrequency, ptr noundef nonnull align 8 dereferenceable(16) %paymentCalendar, ptr noundef nonnull align 4 dereferenceable(8) %0, double noundef %overnightSpread, i16 %endOfMonth.coerce, i64 %fixedPaymentFrequency.coerce, ptr noundef nonnull align 8 dereferenceable(16) %fixedCalendar) unnamed_addr #2 align 2 personality ptr @__gxx_personality_v0 {
entry:
  %endOfMonth = alloca %"class.boost::optional", align 1
  %fixedPaymentFrequency = alloca %"class.boost::optional.49", align 4
  %this.addr = alloca ptr, align 8
  %startDate.addr = alloca ptr, align 8
  %endDate.addr = alloca ptr, align 8
  %fixedRate.addr = alloca ptr, align 8
  %overnightIndex.addr = alloca ptr, align 8
  %discount.indirect_addr = alloca ptr, align 8
  %telescopicValueDates.addr = alloca i8, align 1
  %averagingMethod.addr = alloca i32, align 4
  %paymentLag.addr = alloca i32, align 4
  %paymentConvention.addr = alloca i32, align 4
  %paymentFrequency.addr = alloca i32, align 4
  %paymentCalendar.addr = alloca ptr, align 8
  %.addr = alloca ptr, align 8
  %overnightSpread.addr = alloca double, align 8
  %fixedCalendar.addr = alloca ptr, align 8
  %agg.tmp = alloca %"class.QuantLib::Handle", align 8
  %agg.tmp3 = alloca %"class.boost::optional", align 1
  %agg.tmp4 = alloca %"class.boost::optional.49", align 4
  %ref.tmp = alloca %"class.QuantLib::Null", align 1
  %exn.slot = alloca ptr, align 8
  %ehselector.slot = alloca i32, align 4
  %ref.tmp5 = alloca %"class.boost::shared_ptr.52", align 8
  %coerce.dive = getelementptr inbounds nuw %"class.boost::optional", ptr %endOfMonth, i32 0, i32 0
  store i16 %endOfMonth.coerce, ptr %coerce.dive, align 1
  %coerce.dive1 = getelementptr inbounds nuw %"class.boost::optional.49", ptr %fixedPaymentFrequency, i32 0, i32 0
  store i64 %fixedPaymentFrequency.coerce, ptr %coerce.dive1, align 4
  store ptr %this, ptr %this.addr, align 8, !tbaa !3
  store ptr %startDate, ptr %startDate.addr, align 8, !tbaa !3
  store ptr %endDate, ptr %endDate.addr, align 8, !tbaa !3
  store ptr %fixedRate, ptr %fixedRate.addr, align 8, !tbaa !3
  store ptr %overnightIndex, ptr %overnightIndex.addr, align 8, !tbaa !3
  store ptr %discount, ptr %discount.indirect_addr, align 8, !tbaa !3
  %storedv = zext i1 %telescopicValueDates to i8
  store i8 %storedv, ptr %telescopicValueDates.addr, align 1, !tbaa !16
  store i32 %averagingMethod, ptr %averagingMethod.addr, align 4, !tbaa !26
  store i32 %paymentLag, ptr %paymentLag.addr, align 4, !tbaa !14
  store i32 %paymentConvention, ptr %paymentConvention.addr, align 4, !tbaa !18
  store i32 %paymentFrequency, ptr %paymentFrequency.addr, align 4, !tbaa !20
  store ptr %paymentCalendar, ptr %paymentCalendar.addr, align 8, !tbaa !3
  store ptr %0, ptr %.addr, align 8, !tbaa !3
  store double %overnightSpread, ptr %overnightSpread.addr, align 8, !tbaa !22
  store ptr %fixedCalendar, ptr %fixedCalendar.addr, align 8, !tbaa !3
  %this2 = load ptr, ptr %this.addr, align 8
  %1 = load ptr, ptr %startDate.addr, align 8, !tbaa !3
  %2 = load ptr, ptr %endDate.addr, align 8, !tbaa !3
  %3 = load ptr, ptr %fixedRate.addr, align 8, !tbaa !3
  %4 = load ptr, ptr %overnightIndex.addr, align 8, !tbaa !3
  call void @_ZN8QuantLib6HandleINS_18YieldTermStructureEEC2EOS2_(ptr noundef nonnull align 8 dereferenceable(16) %agg.tmp, ptr noundef nonnull align 8 dereferenceable(16) %discount) #14
  %5 = load i8, ptr %telescopicValueDates.addr, align 1, !tbaa !16, !range !68, !noundef !69
  %loadedv = trunc i8 %5 to i1
  %6 = load i32, ptr %averagingMethod.addr, align 4, !tbaa !26
  %7 = load i32, ptr %paymentLag.addr, align 4, !tbaa !14
  %8 = load i32, ptr %paymentConvention.addr, align 4, !tbaa !18
  %9 = load i32, ptr %paymentFrequency.addr, align 4, !tbaa !20
  %10 = load ptr, ptr %paymentCalendar.addr, align 8, !tbaa !3
  %11 = load double, ptr %overnightSpread.addr, align 8, !tbaa !22
  call void @llvm.memcpy.p0.p0.i64(ptr align 1 %agg.tmp3, ptr align 1 %endOfMonth, i64 2, i1 false)
  call void @llvm.memcpy.p0.p0.i64(ptr align 4 %agg.tmp4, ptr align 4 %fixedPaymentFrequency, i64 8, i1 false)
  %12 = load ptr, ptr %fixedCalendar.addr, align 8, !tbaa !3
  call void @llvm.lifetime.start.p0(i64 1, ptr %ref.tmp) #14
  %call = invoke noundef i32 @_ZNK8QuantLib4NullIjEcvjEv(ptr noundef nonnull align 1 dereferenceable(1) %ref.tmp)
          to label %invoke.cont unwind label %lpad

invoke.cont:                                      ; preds = %entry
  call void @llvm.lifetime.start.p0(i64 16, ptr %ref.tmp5) #14
  call void @_ZN5boost10shared_ptrIN8QuantLib24FloatingRateCouponPricerEEC2Ev(ptr noundef nonnull align 8 dereferenceable(16) %ref.tmp5) #14
  %coerce.dive6 = getelementptr inbounds nuw %"class.boost::optional", ptr %agg.tmp3, i32 0, i32 0
  %13 = load i16, ptr %coerce.dive6, align 1
  %coerce.dive7 = getelementptr inbounds nuw %"class.boost::optional.49", ptr %agg.tmp4, i32 0, i32 0
  %14 = load i64, ptr %coerce.dive7, align 4
  invoke void @_ZN8QuantLib18DatedOISRateHelperC2ERKNS_4DateES3_RKNS_6HandleINS_5QuoteEEERKN5boost10shared_ptrINS_14OvernightIndexEEENS4_INS_18YieldTermStructureEEEbNS_13RateAveraging4TypeEiNS_21BusinessDayConventionENS_9FrequencyERKNS_8CalendarEdNS9_8optionalIbEENSO_ISK_EESN_jjbRKNSA_INS_24FloatingRateCouponPricerEEE(ptr noundef nonnull align 8 dereferenceable(252) %this2, ptr noundef nonnull align 8 dereferenceable(8) %1, ptr noundef nonnull align 8 dereferenceable(8) %2, ptr noundef nonnull align 8 dereferenceable(16) %3, ptr noundef nonnull align 8 dereferenceable(16) %4, ptr noundef %agg.tmp, i1 noundef zeroext %loadedv, i32 noundef %6, i32 noundef %7, i32 noundef %8, i32 noundef %9, ptr noundef nonnull align 8 dereferenceable(16) %10, double noundef %11, i16 %13, i64 %14, ptr noundef nonnull align 8 dereferenceable(16) %12, i32 noundef %call, i32 noundef 0, i1 noundef zeroext false, ptr noundef nonnull align 8 dereferenceable(16) %ref.tmp5)
          to label %invoke.cont9 unwind label %lpad8

invoke.cont9:                                     ; preds = %invoke.cont
  call void @_ZN5boost10shared_ptrIN8QuantLib24FloatingRateCouponPricerEED2Ev(ptr noundef nonnull align 8 dereferenceable(16) %ref.tmp5) #14
  call void @llvm.lifetime.end.p0(i64 16, ptr %ref.tmp5) #14
  call void @llvm.lifetime.end.p0(i64 1, ptr %ref.tmp) #14
  call void @_ZN8QuantLib6HandleINS_18YieldTermStructureEED2Ev(ptr noundef nonnull align 8 dereferenceable(16) %agg.tmp) #14
  ret void

lpad:                                             ; preds = %entry
  %15 = landingpad { ptr, i32 }
          cleanup
  %16 = extractvalue { ptr, i32 } %15, 0
  store ptr %16, ptr %exn.slot, align 8
  %17 = extractvalue { ptr, i32 } %15, 1
  store i32 %17, ptr %ehselector.slot, align 4
  br label %ehcleanup

lpad8:                                            ; preds = %invoke.cont
  %18 = landingpad { ptr, i32 }
          cleanup
  %19 = extractvalue { ptr, i32 } %18, 0
  store ptr %19, ptr %exn.slot, align 8
  %20 = extractvalue { ptr, i32 } %18, 1
  store i32 %20, ptr %ehselector.slot, align 4
  call void @_ZN5boost10shared_ptrIN8QuantLib24FloatingRateCouponPricerEED2Ev(ptr noundef nonnull align 8 dereferenceable(16) %ref.tmp5) #14
  call void @llvm.lifetime.end.p0(i64 16, ptr %ref.tmp5) #14
  br label %ehcleanup

ehcleanup:                                        ; preds = %lpad8, %lpad
  call void @llvm.lifetime.end.p0(i64 1, ptr %ref.tmp) #14
  call void @_ZN8QuantLib6HandleINS_18YieldTermStructureEED2Ev(ptr noundef nonnull align 8 dereferenceable(16) %agg.tmp) #14
  br label %eh.resume

eh.resume:                                        ; preds = %ehcleanup
  %exn = load ptr, ptr %exn.slot, align 8
  %sel = load i32, ptr %ehselector.slot, align 4
  %lpad.val = insertvalue { ptr, i32 } poison, ptr %exn, 0
  %lpad.val11 = insertvalue { ptr, i32 } %lpad.val, i32 %sel, 1
  resume { ptr, i32 } %lpad.val11
}