; Function Attrs: mustprogress uwtable
define void @_ZN8QuantLib18DatedOISRateHelperC2ERKNS_4DateES3_RKNS_6HandleINS_5QuoteEEERKN5boost10shared_ptrINS_14OvernightIndexEEENS4_INS_18YieldTermStructureEEEbNS_13RateAveraging4TypeEiNS_21BusinessDayConventionENS_9FrequencyERKNS_8CalendarERKNS_6PeriodEdNS9_8optionalIbEENSR_ISK_EESN_(ptr noundef nonnull align 8 dereferenceable(252) %this, ptr noundef nonnull align 8 dereferenceable(8) %startDate, ptr noundef nonnull align 8 dereferenceable(8) %endDate, ptr nocapture noundef nonnull readonly align 8 dereferenceable(16) %fixedRate, ptr nocapture noundef nonnull readonly align 8 dereferenceable(16) %overnightIndex, ptr nocapture noundef %discount, i1 noundef zeroext %telescopicValueDates, i32 noundef %averagingMethod, i32 noundef %paymentLag, i32 noundef %paymentConvention, i32 noundef %paymentFrequency, ptr noundef nonnull align 8 dereferenceable(16) %paymentCalendar, ptr nocapture nonnull readnone align 4 %0, double noundef %overnightSpread, i16 %endOfMonth.coerce, i64 %fixedPaymentFrequency.coerce, ptr noundef nonnull align 8 dereferenceable(16) %fixedCalendar) unnamed_addr #7 align 2 personality ptr @__gxx_personality_v0 {
invoke.cont:
  %agg.tmp = alloca %"class.QuantLib::Handle", align 8
  %ref.tmp5 = alloca %"class.boost::shared_ptr.52", align 8
  %1 = load ptr, ptr %discount, align 8, !tbaa !74
  store ptr %1, ptr %agg.tmp, align 8, !tbaa !74
  %pn.i.i = getelementptr inbounds nuw i8, ptr %agg.tmp, i64 8
  %pn3.i.i = getelementptr inbounds nuw i8, ptr %discount, i64 8
  %2 = load ptr, ptr %pn3.i.i, align 8, !tbaa !37
  store ptr %2, ptr %pn.i.i, align 8, !tbaa !37
  tail call void @llvm.memset.p0.i64(ptr noundef nonnull align 8 dereferenceable(16) %discount, i8 0, i64 16, i1 false)
  call void @llvm.lifetime.start.p0(i64 16, ptr nonnull %ref.tmp5) #26
  call void @llvm.memset.p0.i64(ptr noundef nonnull align 8 dereferenceable(16) %ref.tmp5, i8 0, i64 16, i1 false)
  invoke void @_ZN8QuantLib18DatedOISRateHelperC2ERKNS_4DateES3_RKNS_6HandleINS_5QuoteEEERKN5boost10shared_ptrINS_14OvernightIndexEEENS4_INS_18YieldTermStructureEEEbNS_13RateAveraging4TypeEiNS_21BusinessDayConventionENS_9FrequencyERKNS_8CalendarEdNS9_8optionalIbEENSO_ISK_EESN_jjbRKNSA_INS_24FloatingRateCouponPricerEEE(ptr noundef nonnull align 8 dereferenceable(252) %this, ptr noundef nonnull align 8 dereferenceable(8) %startDate, ptr noundef nonnull align 8 dereferenceable(8) %endDate, ptr noundef nonnull align 8 dereferenceable(16) %fixedRate, ptr noundef nonnull align 8 dereferenceable(16) %overnightIndex, ptr noundef nonnull %agg.tmp, i1 noundef zeroext %telescopicValueDates, i32 noundef %averagingMethod, i32 noundef %paymentLag, i32 noundef %paymentConvention, i32 noundef %paymentFrequency, ptr noundef nonnull align 8 dereferenceable(16) %paymentCalendar, double noundef %overnightSpread, i16 %endOfMonth.coerce, i64 %fixedPaymentFrequency.coerce, ptr noundef nonnull align 8 dereferenceable(16) %fixedCalendar, i32 noundef 2147483647, i32 noundef 0, i1 noundef zeroext false, ptr noundef nonnull align 8 dereferenceable(16) %ref.tmp5)
          to label %invoke.cont9 unwind label %lpad8

invoke.cont9:                                     ; preds = %invoke.cont
  %pn.i = getelementptr inbounds nuw i8, ptr %ref.tmp5, i64 8
  %3 = load ptr, ptr %pn.i, align 8, !tbaa !37
  %cmp.not.i.i = icmp eq ptr %3, null
  br i1 %cmp.not.i.i, label %_ZN5boost10shared_ptrIN8QuantLib24FloatingRateCouponPricerEED2Ev.exit, label %if.then.i.i

if.then.i.i:                                      ; preds = %invoke.cont9
  %use_count_.i.i.i = getelementptr inbounds nuw i8, ptr %3, i64 8
  %4 = atomicrmw sub ptr %use_count_.i.i.i, i32 1 acq_rel, align 4
  %cmp.i.i.i = icmp eq i32 %4, 1
  br i1 %cmp.i.i.i, label %if.then.i.i.i, label %_ZN5boost10shared_ptrIN8QuantLib24FloatingRateCouponPricerEED2Ev.exit

if.then.i.i.i:                                    ; preds = %if.then.i.i
  %vtable.i.i.i = load ptr, ptr %3, align 8, !tbaa !35
  %vfn.i.i.i = getelementptr inbounds i8, ptr %vtable.i.i.i, i64 16
  %5 = load ptr, ptr %vfn.i.i.i, align 8
  invoke void %5(ptr noundef nonnull align 8 dereferenceable(16) %3)
          to label %.noexc.i.i unwind label %terminate.lpad.i.i

.noexc.i.i:                                       ; preds = %if.then.i.i.i
  %weak_count_.i.i.i.i = getelementptr inbounds nuw i8, ptr %3, i64 12
  %6 = atomicrmw sub ptr %weak_count_.i.i.i.i, i32 1 acq_rel, align 4
  %cmp.i.i.i.i = icmp eq i32 %6, 1
  br i1 %cmp.i.i.i.i, label %if.then.i.i.i.i, label %_ZN5boost10shared_ptrIN8QuantLib24FloatingRateCouponPricerEED2Ev.exit

if.then.i.i.i.i:                                  ; preds = %.noexc.i.i
  %vtable.i.i.i.i = load ptr, ptr %3, align 8, !tbaa !35
  %vfn.i.i.i.i = getelementptr inbounds i8, ptr %vtable.i.i.i.i, i64 24
  %7 = load ptr, ptr %vfn.i.i.i.i, align 8
  invoke void %7(ptr noundef nonnull align 8 dereferenceable(16) %3)
          to label %_ZN5boost10shared_ptrIN8QuantLib24FloatingRateCouponPricerEED2Ev.exit unwind label %terminate.lpad.i.i

terminate.lpad.i.i:                               ; preds = %if.then.i.i.i.i, %if.then.i.i.i
  %8 = landingpad { ptr, i32 }
          catch ptr null
  %9 = extractvalue { ptr, i32 } %8, 0
  call void @__clang_call_terminate(ptr %9) #27
  unreachable

_ZN5boost10shared_ptrIN8QuantLib24FloatingRateCouponPricerEED2Ev.exit: ; preds = %invoke.cont9, %if.then.i.i, %.noexc.i.i, %if.then.i.i.i.i
  call void @llvm.lifetime.end.p0(i64 16, ptr nonnull %ref.tmp5) #26
  %10 = load ptr, ptr %pn.i.i, align 8, !tbaa !37
  %cmp.not.i.i.i = icmp eq ptr %10, null
  br i1 %cmp.not.i.i.i, label %_ZN8QuantLib6HandleINS_18YieldTermStructureEED2Ev.exit, label %if.then.i.i.i3

if.then.i.i.i3:                                   ; preds = %_ZN5boost10shared_ptrIN8QuantLib24FloatingRateCouponPricerEED2Ev.exit
  %use_count_.i.i.i.i = getelementptr inbounds nuw i8, ptr %10, i64 8
  %11 = atomicrmw sub ptr %use_count_.i.i.i.i, i32 1 acq_rel, align 4
  %cmp.i.i.i.i4 = icmp eq i32 %11, 1
  br i1 %cmp.i.i.i.i4, label %if.then.i.i.i.i5, label %_ZN8QuantLib6HandleINS_18YieldTermStructureEED2Ev.exit

if.then.i.i.i.i5:                                 ; preds = %if.then.i.i.i3
  %vtable.i.i.i.i6 = load ptr, ptr %10, align 8, !tbaa !35
  %vfn.i.i.i.i7 = getelementptr inbounds i8, ptr %vtable.i.i.i.i6, i64 16
  %12 = load ptr, ptr %vfn.i.i.i.i7, align 8
  invoke void %12(ptr noundef nonnull align 8 dereferenceable(16) %10)
          to label %.noexc.i.i.i unwind label %terminate.lpad.i.i.i

.noexc.i.i.i:                                     ; preds = %if.then.i.i.i.i5
  %weak_count_.i.i.i.i.i = getelementptr inbounds nuw i8, ptr %10, i64 12
  %13 = atomicrmw sub ptr %weak_count_.i.i.i.i.i, i32 1 acq_rel, align 4
  %cmp.i.i.i.i.i = icmp eq i32 %13, 1
  br i1 %cmp.i.i.i.i.i, label %if.then.i.i.i.i.i, label %_ZN8QuantLib6HandleINS_18YieldTermStructureEED2Ev.exit

if.then.i.i.i.i.i:                                ; preds = %.noexc.i.i.i
  %vtable.i.i.i.i.i = load ptr, ptr %10, align 8, !tbaa !35
  %vfn.i.i.i.i.i = getelementptr inbounds i8, ptr %vtable.i.i.i.i.i, i64 24
  %14 = load ptr, ptr %vfn.i.i.i.i.i, align 8
  invoke void %14(ptr noundef nonnull align 8 dereferenceable(16) %10)
          to label %_ZN8QuantLib6HandleINS_18YieldTermStructureEED2Ev.exit unwind label %terminate.lpad.i.i.i

terminate.lpad.i.i.i:                             ; preds = %if.then.i.i.i.i.i, %if.then.i.i.i.i5
  %15 = landingpad { ptr, i32 }
          catch ptr null
  %16 = extractvalue { ptr, i32 } %15, 0
  call void @__clang_call_terminate(ptr %16) #27
  unreachable

_ZN8QuantLib6HandleINS_18YieldTermStructureEED2Ev.exit: ; preds = %_ZN5boost10shared_ptrIN8QuantLib24FloatingRateCouponPricerEED2Ev.exit, %if.then.i.i.i3, %.noexc.i.i.i, %if.then.i.i.i.i.i
  ret void

lpad8:                                            ; preds = %invoke.cont
  %17 = landingpad { ptr, i32 }
          cleanup
  call void @_ZN5boost10shared_ptrIN8QuantLib24FloatingRateCouponPricerEED2Ev(ptr noundef nonnull align 8 dereferenceable(16) %ref.tmp5) #26
  call void @llvm.lifetime.end.p0(i64 16, ptr nonnull %ref.tmp5) #26
  call void @_ZN8QuantLib6HandleINS_18YieldTermStructureEED2Ev(ptr noundef nonnull align 8 dereferenceable(16) %agg.tmp) #26
  resume { ptr, i32 } %17
}